Certificate:
    Data:
        Version: 3 (0x2)
        Serial Number: 4 (0x4)
    Signature Algorithm: sha256WithRSAEncryption
        Issuer: C=CN, ST=GuangDong, L=GuangZhou, O=dmai, OU=devops, CN=ca_server
        Validity
            Not Before: Apr 20 10:16:17 2021 GMT
            Not After : Apr 20 10:16:17 2022 GMT
        Subject: C=CN, ST=GuangDong, O=dmai, OU=devops, CN=grpc-demo
        Subject Public Key Info:
            Public Key Algorithm: rsaEncryption
                Public-Key: (4096 bit)
                Modulus:
                    00:c8:60:1e:3a:23:5d:9c:e4:97:3b:ab:ae:30:cb:
                    c8:4b:8c:c6:47:13:4f:4d:37:01:4c:ad:c2:e7:28:
                    36:ef:34:b7:05:97:2a:3e:fb:0c:17:7f:63:d6:59:
                    bc:11:b6:b0:49:b6:e7:17:8a:34:fa:8f:b3:93:09:
                    57:81:3e:03:a6:b9:b1:ac:cc:1b:5a:62:bf:b8:44:
                    04:09:e5:20:0d:7b:ba:69:e5:4b:4e:97:25:88:c4:
                    ec:75:37:11:ac:34:4a:53:79:bd:d3:66:20:e1:98:
                    6d:d5:c7:cd:aa:3d:cc:3e:d3:7b:0e:e5:4a:6d:b6:
                    6d:9d:af:73:c4:7d:07:84:74:46:51:37:83:46:ae:
                    11:41:72:e6:07:e7:1d:3f:f8:b3:39:7b:74:70:a8:
                    d8:4b:99:3f:5a:f0:c1:25:c7:f5:f4:63:9c:8f:5f:
                    52:f4:60:90:c0:e5:27:86:e4:a4:1f:55:f0:df:e0:
                    35:6f:07:23:75:34:9a:05:9a:ed:f9:04:72:08:b5:
                    ed:5d:51:05:a2:74:4d:f6:88:20:9f:46:9b:43:35:
                    8b:b2:90:b0:87:4e:b2:91:01:c7:21:b8:88:d1:c7:
                    a7:aa:c1:d6:37:2d:89:dc:0e:e9:fe:12:ae:c7:06:
                    52:d0:88:aa:92:ac:6c:f4:ea:5e:fe:6c:d6:69:87:
                    bd:98:b3:32:da:12:50:20:0a:87:ac:27:ba:44:5c:
                    01:80:83:a8:99:66:60:c1:fd:3f:e9:4f:35:db:6d:
                    01:11:21:79:37:04:ce:57:e9:9a:c1:de:d9:ea:1a:
                    cc:d4:ce:57:5b:bc:04:17:37:90:b9:fa:80:3e:66:
                    c0:ac:ad:08:19:22:a0:d8:3b:dc:d8:0c:25:7a:ba:
                    d1:39:ef:e6:18:38:fe:91:91:2c:36:1d:14:66:b5:
                    a2:25:9a:ff:4a:6b:57:15:30:04:12:2f:27:9a:96:
                    51:00:b6:ce:9b:d5:69:d1:57:37:30:1f:87:21:1b:
                    00:49:e2:41:14:2c:88:33:b9:4b:e0:87:19:16:c1:
                    55:12:21:6a:bc:a1:2e:fc:f2:6d:48:f7:09:ed:fd:
                    64:ca:05:64:9e:1a:75:ae:09:68:e4:2c:55:0c:e6:
                    00:62:ac:c9:dd:61:b5:46:b3:0d:13:f0:e9:ab:06:
                    81:8c:a4:0d:a8:e9:73:82:0b:a9:be:d5:39:2f:20:
                    ef:b0:3b:e8:fd:cc:57:93:85:9e:b5:36:b7:15:14:
                    e4:78:c8:2b:ae:ea:66:f9:0b:2e:9a:f6:83:7a:b9:
                    86:6c:b5:c6:d3:d7:ae:77:77:80:48:d2:3b:38:dd:
                    91:e9:2b:af:cc:ca:c1:09:28:29:86:32:63:45:79:
                    e0:4d:f7
                Exponent: 65537 (0x10001)
        X509v3 extensions:
            X509v3 Basic Constraints: 
                CA:FALSE
            X509v3 Key Usage: 
                Digital Signature, Non Repudiation, Key Encipherment
            X509v3 Subject Alternative Name: 
                DNS:*.grpc.test.com, DNS:dfe.example.org, DNS:ex.abcexpale.net
    Signature Algorithm: sha256WithRSAEncryption
         45:45:8d:f8:e5:0b:06:92:a6:8d:d2:9a:eb:88:45:8f:b3:aa:
         35:9d:e4:aa:8f:12:07:51:a1:9a:04:a4:e0:ee:93:f6:9a:83:
         03:01:cf:d6:77:7d:30:f0:9b:d5:53:55:9f:15:dc:ba:70:dd:
         51:58:85:0d:68:1a:99:51:6c:c1:83:25:93:f7:7a:5b:13:9d:
         b7:08:6f:ae:2f:73:ce:a6:0f:66:46:38:a9:37:ad:e5:3c:ac:
         e2:68:22:68:d5:71:88:c5:c6:4a:21:e1:60:ca:48:21:bd:49:
         e2:77:08:5c:48:b8:19:f6:b4:0f:de:1f:f3:b4:d4:97:e2:bb:
         b5:24:7b:b9:c2:5e:9e:1b:08:c0:3e:7e:f5:9c:b6:ef:7d:e7:
         3a:a4:9c:62:00:51:0e:af:ed:e7:3c:97:6c:ed:67:a0:91:df:
         ed:07:8b:41:97:eb:12:df:a8:f7:78:2a:ca:04:24:c7:d5:3f:
         24:f1:44:62:5e:2a:d0:4e:41:f5:03:27:bc:a8:61:08:69:3d:
         e2:47:0d:4c:cf:32:81:a9:f0:f1:ed:a1:12:dc:32:c7:52:d2:
         d2:ea:1f:74:29:a5:ac:62:94:f4:84:e7:c6:7e:a9:61:89:77:
         8f:7a:14:fa:43:6c:17:c4:7e:fd:ec:6e:d3:90:cf:1b:1e:08:
         dc:4a:bc:86:8a:32:08:fe:9d:8d:0c:55:c9:34:78:6a:42:97:
         98:16:07:90:b8:17:51:f0:3b:5b:0d:a3:5f:ff:38:ed:52:7c:
         40:f2:d2:31:55:d5:09:4d:6f:ae:fc:40:e1:bf:54:a3:ee:cf:
         3f:e9:30:c3:e3:a8:3b:cf:c3:7a:64:a8:ba:bb:1c:aa:da:f3:
         74:61:52:15:63:bb:b8:30:58:14:fd:10:6c:12:13:45:94:13:
         e1:b3:ae:3c:c0:64:c1:c8:cb:18:de:13:c4:95:4a:2a:92:be:
         d3:ef:32:da:31:58:15:68:1f:e3:9a:34:a8:4f:13:f3:5c:11:
         59:a2:2d:d8:5f:93:41:53:eb:7a:e8:5b:84:7e:a0:58:f4:45:
         5c:8f:1d:a4:1c:19:b1:9a:60:d0:5c:7e:47:b3:d2:ee:55:46:
         e8:ef:c2:67:8b:36:72:4a:91:c1:c4:eb:68:9e:ea:59:52:c3:
         e6:ad:ed:e6:68:15:db:e1:70:03:19:62:cd:52:cd:f9:b9:82:
         0c:98:5b:7d:a2:4a:76:7c:f9:94:7f:18:a9:7a:da:3b:07:e6:
         84:55:8f:8e:26:32:f4:e5:c7:20:1f:1a:15:a1:c6:90:88:ae:
         78:7b:70:ce:e1:66:67:d5:d8:a6:d2:26:22:70:42:81:aa:6c:
         12:d4:b6:02:93:f4:db:2c
-----BEGIN CERTIFICATE-----
MIIFkjCCA3qgAwIBAgIBBDANBgkqhkiG9w0BAQsFADBpMQswCQYDVQQGEwJDTjES
MBAGA1UECAwJR3VhbmdEb25nMRIwEAYDVQQHDAlHdWFuZ1pob3UxDTALBgNVBAoM
BGRtYWkxDzANBgNVBAsMBmRldm9wczESMBAGA1UEAwwJY2Ffc2VydmVyMB4XDTIx
MDQyMDEwMTYxN1oXDTIyMDQyMDEwMTYxN1owVTELMAkGA1UEBhMCQ04xEjAQBgNV
BAgMCUd1YW5nRG9uZzENMAsGA1UECgwEZG1haTEPMA0GA1UECwwGZGV2b3BzMRIw
EAYDVQQDDAlncnBjLWRlbW8wggIiMA0GCSqGSIb3DQEBAQUAA4ICDwAwggIKAoIC
AQDIYB46I12c5Jc7q64wy8hLjMZHE09NNwFMrcLnKDbvNLcFlyo++wwXf2PWWbwR
trBJtucXijT6j7OTCVeBPgOmubGszBtaYr+4RAQJ5SANe7pp5UtOlyWIxOx1NxGs
NEpTeb3TZiDhmG3Vx82qPcw+03sO5Upttm2dr3PEfQeEdEZRN4NGrhFBcuYH5x0/
+LM5e3RwqNhLmT9a8MElx/X0Y5yPX1L0YJDA5SeG5KQfVfDf4DVvByN1NJoFmu35
BHIIte1dUQWidE32iCCfRptDNYuykLCHTrKRAcchuIjRx6eqwdY3LYncDun+Eq7H
BlLQiKqSrGz06l7+bNZph72YszLaElAgCoesJ7pEXAGAg6iZZmDB/T/pTzXbbQER
IXk3BM5X6ZrB3tnqGszUzldbvAQXN5C5+oA+ZsCsrQgZIqDYO9zYDCV6utE57+YY
OP6RkSw2HRRmtaIlmv9Ka1cVMAQSLyeallEAts6b1WnRVzcwH4chGwBJ4kEULIgz
uUvghxkWwVUSIWq8oS788m1I9wnt/WTKBWSeGnWuCWjkLFUM5gBirMndYbVGsw0T
8OmrBoGMpA2o6XOCC6m+1TkvIO+wO+j9zFeThZ61NrcVFOR4yCuu6mb5Cy6a9oN6
uYZstcbT1653d4BI0js43ZHpK6/MysEJKCmGMmNFeeBN9wIDAQABo1kwVzAJBgNV
HRMEAjAAMAsGA1UdDwQEAwIF4DA9BgNVHREENjA0gg8qLmdycGMudGVzdC5jb22C
D2RmZS5leGFtcGxlLm9yZ4IQZXguYWJjZXhwYWxlLm5ldDANBgkqhkiG9w0BAQsF
AAOCAgEARUWN+OULBpKmjdKa64hFj7OqNZ3kqo8SB1GhmgSk4O6T9pqDAwHP1nd9
MPCb1VNVnxXcunDdUViFDWgamVFswYMlk/d6WxOdtwhvri9zzqYPZkY4qTet5Tys
4mgiaNVxiMXGSiHhYMpIIb1J4ncIXEi4Gfa0D94f87TUl+K7tSR7ucJenhsIwD5+
9Zy2733nOqScYgBRDq/t5zyXbO1noJHf7QeLQZfrEt+o93gqygQkx9U/JPFEYl4q
0E5B9QMnvKhhCGk94kcNTM8yganw8e2hEtwyx1LS0uofdCmlrGKU9ITnxn6pYYl3
j3oU+kNsF8R+/exu05DPGx4I3Eq8hooyCP6djQxVyTR4akKXmBYHkLgXUfA7Ww2j
X/847VJ8QPLSMVXVCU1vrvxA4b9Uo+7PP+kww+OoO8/DemSourscqtrzdGFSFWO7
uDBYFP0QbBITRZQT4bOuPMBkwcjLGN4TxJVKKpK+0+8y2jFYFWgf45o0qE8T81wR
WaIt2F+TQVPreuhbhH6gWPRFXI8dpBwZsZpg0Fx+R7PS7lVG6O/CZ4s2ckqRwcTr
aJ7qWVLD5q3t5mgV2+FwAxlizVLN+bmCDJhbfaJKdnz5lH8YqXraOwfmhFWPjiYy
9OXHIB8aFaHGkIiueHtwzuFmZ9XYptImInBCgapsEtS2ApP02yw=
-----END CERTIFICATE-----
